; ModuleID = '49/312.c'
source_filename = "49/312.c"
target datalayout = "e-m:e-p270:32:32-p271:32:32-p272:64:64-i64:64-f80:128-n8:16:32:64-S128"
target triple = "x86_64-pc-linux-gnu"

@.str = private unnamed_addr constant [3 x i8] c"%c\00", align 1
@.str.1 = private unnamed_addr constant [2 x i8] c"\0A\00", align 1

; Function Attrs: noinline nounwind uwtable
define dso_local i32 @main() #0 {
  %1 = alloca i32, align 4
  %2 = alloca i8*, align 8
  %3 = alloca i32, align 4
  %4 = alloca i32, align 4
  %5 = alloca i32, align 4
  %6 = alloca i32, align 4
  store i32 0, i32* %1, align 4
  %7 = call noalias i8* @malloc(i64 500) #4
  store i8* %7, i8** %2, align 8
  %8 = load i8*, i8** %2, align 8
  %9 = call i32 (i8*, ...) bitcast (i32 (...)* @gets to i32 (i8*, ...)*)(i8* %8)
  store i32 1, i32* %4, align 4
  br label %10

10:                                               ; preds = %98, %0
  %11 = load i32, i32* %4, align 4
  %12 = sext i32 %11 to i64
  %13 = load i8*, i8** %2, align 8
  %14 = call i64 @strlen(i8* %13) #5
  %15 = icmp ult i64 %12, %14
  br i1 %15, label %16, label %101

16:                                               ; preds = %10
  store i32 0, i32* %3, align 4
  br label %17

17:                                               ; preds = %94, %16
  %18 = load i32, i32* %3, align 4
  %19 = sext i32 %18 to i64
  %20 = load i8*, i8** %2, align 8
  %21 = call i64 @strlen(i8* %20) #5
  %22 = sub i64 %21, 1
  %23 = icmp ult i64 %19, %22
  br i1 %23, label %24, label %97

24:                                               ; preds = %17
  store i32 1, i32* %6, align 4
  %25 = load i32, i32* %3, align 4
  %26 = load i32, i32* %4, align 4
  %27 = add nsw i32 %25, %26
  %28 = sext i32 %27 to i64
  %29 = load i8*, i8** %2, align 8
  %30 = call i64 @strlen(i8* %29) #5
  %31 = icmp ule i64 %28, %30
  br i1 %31, label %32, label %93

32:                                               ; preds = %24
  store i32 0, i32* %5, align 4
  br label %33

33:                                               ; preds = %65, %32
  %34 = load i32, i32* %5, align 4
  %35 = load i32, i32* %4, align 4
  %36 = sdiv i32 %35, 2
  %37 = add nsw i32 %36, 1
  %38 = icmp slt i32 %34, %37
  br i1 %38, label %39, label %68

39:                                               ; preds = %33
  %40 = load i8*, i8** %2, align 8
  %41 = load i32, i32* %3, align 4
  %42 = sext i32 %41 to i64
  %43 = getelementptr inbounds i8, i8* %40, i64 %42
  %44 = load i32, i32* %5, align 4
  %45 = sext i32 %44 to i64
  %46 = getelementptr inbounds i8, i8* %43, i64 %45
  %47 = load i8, i8* %46, align 1
  %48 = sext i8 %47 to i32
  %49 = load i8*, i8** %2, align 8
  %50 = load i32, i32* %3, align 4
  %51 = sext i32 %50 to i64
  %52 = getelementptr inbounds i8, i8* %49, i64 %51
  %53 = load i32, i32* %4, align 4
  %54 = sext i32 %53 to i64
  %55 = getelementptr inbounds i8, i8* %52, i64 %54
  %56 = load i32, i32* %5, align 4
  %57 = sext i32 %56 to i64
  %58 = sub i64 0, %57
  %59 = getelementptr inbounds i8, i8* %55, i64 %58
  %60 = load i8, i8* %59, align 1
  %61 = sext i8 %60 to i32
  %62 = icmp ne i32 %48, %61
  br i1 %62, label %63, label %64

63:                                               ; preds = %39
  store i32 0, i32* %6, align 4
  br label %68

64:                                               ; preds = %39
  br label %65

65:                                               ; preds = %64
  %66 = load i32, i32* %5, align 4
  %67 = add nsw i32 %66, 1
  store i32 %67, i32* %5, align 4
  br label %33

68:                                               ; preds = %63, %33
  %69 = load i32, i32* %6, align 4
  %70 = icmp ne i32 %69, 0
  br i1 %70, label %71, label %92

71:                                               ; preds = %68
  %72 = load i32, i32* %3, align 4
  store i32 %72, i32* %5, align 4
  br label %73

73:                                               ; preds = %87, %71
  %74 = load i32, i32* %5, align 4
  %75 = load i32, i32* %3, align 4
  %76 = load i32, i32* %4, align 4
  %77 = add nsw i32 %75, %76
  %78 = icmp sle i32 %74, %77
  br i1 %78, label %79, label %90

79:                                               ; preds = %73
  %80 = load i8*, i8** %2, align 8
  %81 = load i32, i32* %5, align 4
  %82 = sext i32 %81 to i64
  %83 = getelementptr inbounds i8, i8* %80, i64 %82
  %84 = load i8, i8* %83, align 1
  %85 = sext i8 %84 to i32
  %86 = call i32 (i8*, ...) @printf(i8* getelementptr inbounds ([3 x i8], [3 x i8]* @.str, i64 0, i64 0), i32 %85)
  br label %87

87:                                               ; preds = %79
  %88 = load i32, i32* %5, align 4
  %89 = add nsw i32 %88, 1
  store i32 %89, i32* %5, align 4
  br label %73

90:                                               ; preds = %73
  %91 = call i32 (i8*, ...) @printf(i8* getelementptr inbounds ([2 x i8], [2 x i8]* @.str.1, i64 0, i64 0))
  br label %92

92:                                               ; preds = %90, %68
  br label %93

93:                                               ; preds = %92, %24
  br label %94

94:                                               ; preds = %93
  %95 = load i32, i32* %3, align 4
  %96 = add nsw i32 %95, 1
  store i32 %96, i32* %3, align 4
  br label %17

97:                                               ; preds = %17
  br label %98

98:                                               ; preds = %97
  %99 = load i32, i32* %4, align 4
  %100 = add nsw i32 %99, 1
  store i32 %100, i32* %4, align 4
  br label %10

101:                                              ; preds = %10
  %102 = load i32, i32* %1, align 4
  ret i32 %102
}

; Function Attrs: nounwind
declare dso_local noalias i8* @malloc(i64) #1

declare dso_local i32 @gets(...) #2

; Function Attrs: nounwind readonly
declare dso_local i64 @strlen(i8*) #3

declare dso_local i32 @printf(i8*, ...) #2


!llvm.module.flags = !{!0}
!llvm.ident = !{!1}

!0 = !{i32 1, !"wchar_size", i32 4}
!1 = !{!"clang version 10.0.0-4ubuntu1 "}
